Certificate:
    Data:
        Version: 3 (0x2)
        Serial Number:
            03:58:79:b6:62:c9:72:78:55:89:7c:ed:bc:98:91:ae
        Signature Algorithm: sha1WithRSAEncryption
        Issuer: C=US, O=DigiCert Inc, OU=www.digicert.com, CN=DigiCert High Assurance CA-3
        Validity
            Not Before: Jun  1 00:00:00 2011 GMT
            Not After : Sep 23 12:00:00 2014 GMT
        Subject: C=US, ST=New York, L=New York, O=Foursquare Labs, Inc., CN=*.foursquare.com
        Subject Public Key Info:
            Public Key Algorithm: rsaEncryption
                Public-Key: (2048 bit)
                Modulus:
                    00:d8:29:3d:19:12:cb:64:48:34:d5:48:75:a3:e7:
                    8f:df:0d:a1:bf:cb:0d:8e:ae:42:4e:94:97:b8:84:
                    84:5c:2b:35:3f:5f:72:42:d9:39:7d:41:4b:e4:38:
                    18:5e:7b:ad:4b:5d:91:ec:58:44:d6:03:7a:8e:d9:
                    2e:b1:56:18:92:75:fa:5b:a1:6c:44:3c:37:ab:6a:
                    11:2d:1e:90:e3:25:1f:9f:64:9e:f7:dd:ea:d5:d6:
                    cb:5b:72:bf:2b:71:ff:4f:78:f0:16:1b:21:24:94:
                    84:0f:2f:48:c4:58:26:a3:c9:d8:f5:9d:09:c0:ae:
                    b1:2a:15:14:d2:b2:a6:c0:e0:96:bd:ec:d3:75:90:
                    5e:a0:85:a7:0e:23:14:d5:7a:fb:63:a5:76:d7:1c:
                    e1:60:a7:4c:2e:55:11:65:5a:c2:50:9a:52:27:a4:
                    ec:7e:7a:8f:95:27:dc:e9:c2:0a:39:6f:ce:05:03:
                    91:69:bf:4e:fc:3f:29:bf:c5:e2:06:f9:94:d8:9a:
                    1b:31:b0:07:f9:79:ee:1d:9d:d9:8c:61:88:35:81:
                    28:8a:87:b9:03:2f:aa:0c:a7:1f:26:17:09:1b:5c:
                    da:1b:37:7b:b8:ef:06:4d:9b:83:f2:d0:d6:e9:74:
                    84:aa:5f:27:82:31:74:1a:98:e1:07:64:4d:bb:3f:
                    25:e7
                Exponent: 65537 (0x10001)
        X509v3 extensions:
            X509v3 Authority Key Identifier: 
                keyid:50:EA:73:89:DB:29:FB:10:8F:9E:E5:01:20:D4:DE:79:99:48:83:F7

            X509v3 Subject Key Identifier: 
                D4:E9:BE:84:41:89:94:56:BC:52:BE:4B:32:11:E4:F4:BD:9A:A3:1D
            X509v3 Subject Alternative Name: 
                DNS:*.foursquare.com, DNS:foursquare.com
            X509v3 Certificate Policies: 
                Policy: 2.16.840.1.114412.1.1
                  CPS: http://www.digicert.com/ssl-cps-repository.htm
                  User Notice:
                    Explicit Text: 

            Authority Information Access: 
                OCSP - URI:http://ocsp.digicert.com
                CA Issuers - URI:http://cacerts.digicert.com/DigiCertHighAssuranceCA-3.crt

            X509v3 Basic Constraints: critical
                CA:FALSE
            X509v3 CRL Distribution Points: 

                Full Name:
                  URI:http://crl3.digicert.com/ca3-2011e.crl

                Full Name:
                  URI:http://crl4.digicert.com/ca3-2011e.crl

            X509v3 Extended Key Usage: 
                TLS Web Server Authentication, TLS Web Client Authentication
            X509v3 Key Usage: critical
                Digital Signature, Key Encipherment
    Signature Algorithm: sha1WithRSAEncryption
        0a:18:e9:ed:8d:06:71:1d:de:0f:c7:1b:c6:98:71:92:6d:53:
        64:32:af:2a:07:86:33:cc:89:a5:ed:4e:2a:2b:ce:fc:28:df:
        36:3a:13:c5:9b:35:8c:36:ab:5a:d3:9e:13:4e:34:c3:82:1f:
        f5:fd:a3:f5:96:75:36:f2:be:5d:e0:19:10:36:ac:74:e3:80:
        12:c3:06:68:01:a5:67:3b:e1:5e:76:3f:17:e2:75:d2:fd:d8:
        62:b3:cb:14:d5:ef:4d:dc:9b:32:a0:f7:73:e1:9f:48:8d:ee:
        3b:ad:32:35:6b:7c:a7:c3:17:c5:4a:9c:3f:db:82:f3:e7:1d:
        76:b7:b3:93:e8:e0:bd:32:42:7c:0f:b2:59:9c:14:cf:40:8a:
        a6:2f:4e:c2:e8:46:1a:3f:aa:87:bc:10:ac:67:03:33:b0:1f:
        15:86:a9:d7:66:1a:aa:b0:87:cc:59:25:2c:e0:0b:5b:fc:79:
        c4:bf:fc:07:87:37:b1:bc:40:08:60:76:c1:01:32:79:ad:9a:
        8b:1e:86:0a:b6:f1:3d:84:25:fe:e9:d2:5a:37:e7:b1:8c:7e:
        c6:10:e4:95:3a:de:49:00:1b:f9:16:26:67:94:2b:df:57:97:
        77:2c:8d:cf:fd:9c:8d:3f:83:10:c4:bd:ed:f4:b0:c3:0a:0f:
        d6:c9:65:1a
-----BEGIN CERTIFICATE-----
MIIGujCCBaKgAwIBAgIQA1h5tmLJcnhViXztvJiRrjANBgkqhkiG9w0BAQUFADBm
MQswCQYDVQQGEwJVUzEVMBMGA1UEChMMRGlnaUNlcnQgSW5jMRkwFwYDVQQLExB3
d3cuZGlnaWNlcnQuY29tMSUwIwYDVQQDExxEaWdpQ2VydCBIaWdoIEFzc3VyYW5j
ZSBDQS0zMB4XDTExMDYwMTAwMDAwMFoXDTE0MDkyMzEyMDAwMFowbjELMAkGA1UE
BhMCVVMxETAPBgNVBAgTCE5ldyBZb3JrMREwDwYDVQQHEwhOZXcgWW9yazEeMBwG
A1UEChMVRm91cnNxdWFyZSBMYWJzLCBJbmMuMRkwFwYDVQQDFBAqLmZvdXJzcXVh
cmUuY29tMIIBIjANBgkqhkiG9w0BAQEFAAOCAQ8AMIIBCgKCAQEA2Ck9GRLLZEg0
1Uh1o+eP3w2hv8sNjq5CTpSXuISEXCs1P19yQtk5fUFL5DgYXnutS12R7FhE1gN6
jtkusVYYknX6W6FsRDw3q2oRLR6Q4yUfn2Se993q1dbLW3K/K3H/T3jwFhshJJSE
Dy9IxFgmo8nY9Z0JwK6xKhUU0rKmwOCWvezTdZBeoIWnDiMU1Xr7Y6V21xzhYKdM
LlURZVrCUJpSJ6TsfnqPlSfc6cIKOW/OBQORab9O/D8pv8XiBvmU2JobMbAH+Xnu
HZ3ZjGGINYEoioe5Ay+qDKcfJhcJG1zaGzd7uO8GTZuD8tDW6XSEql8ngjF0Gpjh
B2RNuz8l5wIDAQABo4IDWjCCA1YwHwYDVR0jBBgwFoAUUOpzidsp+xCPnuUBINTe
eZlIg/cwHQYDVR0OBBYEFNTpvoRBiZRWvFK+SzIR5PS9mqMdMCsGA1UdEQQkMCKC
ECouZm91cnNxdWFyZS5jb22CDmZvdXJzcXVhcmUuY29tMIIBxAYDVR0gBIIBuzCC
AbcwggGzBglghkgBhv1sAQEwggGkMDoGCCsGAQUFBwIBFi5odHRwOi8vd3d3LmRp
Z2ljZXJ0LmNvbS9zc2wtY3BzLXJlcG9zaXRvcnkuaHRtMIIBZAYIKwYBBQUHAgIw
ggFWHoIBUgBBAG4AeQAgAHUAcwBlACAAbwBmACAAdABoAGkAcwAgAEMAZQByAHQA
aQBmAGkAYwBhAHQAZQAgAGMAbwBuAHMAdABpAHQAdQB0AGUAcwAgAGEAYwBjAGUA
cAB0AGEAbgBjAGUAIABvAGYAIAB0AGgAZQAgAEQAaQBnAGkAQwBlAHIAdAAgAEMA
UAAvAEMAUABTACAAYQBuAGQAIAB0AGgAZQAgAFIAZQBsAHkAaQBuAGcAIABQAGEA
cgB0AHkAIABBAGcAcgBlAGUAbQBlAG4AdAAgAHcAaABpAGMAaAAgAGwAaQBtAGkA
dAAgAGwAaQBhAGIAaQBsAGkAdAB5ACAAYQBuAGQAIABhAHIAZQAgAGkAbgBjAG8A
cgBwAG8AcgBhAHQAZQBkACAAaABlAHIAZQBpAG4AIABiAHkAIAByAGUAZgBlAHIA
ZQBuAGMAZQAuMHsGCCsGAQUFBwEBBG8wbTAkBggrBgEFBQcwAYYYaHR0cDovL29j
c3AuZGlnaWNlcnQuY29tMEUGCCsGAQUFBzAChjlodHRwOi8vY2FjZXJ0cy5kaWdp
Y2VydC5jb20vRGlnaUNlcnRIaWdoQXNzdXJhbmNlQ0EtMy5jcnQwDAYDVR0TAQH/
BAIwADBlBgNVHR8EXjBcMCygKqAohiZodHRwOi8vY3JsMy5kaWdpY2VydC5jb20v
Y2EzLTIwMTFlLmNybDAsoCqgKIYmaHR0cDovL2NybDQuZGlnaWNlcnQuY29tL2Nh
My0yMDExZS5jcmwwHQYDVR0lBBYwFAYIKwYBBQUHAwEGCCsGAQUFBwMCMA4GA1Ud
DwEB/wQEAwIFoDANBgkqhkiG9w0BAQUFAAOCAQEAChjp7Y0GcR3eD8cbxphxkm1T
ZDKvKgeGM8yJpe1OKivO/CjfNjoTxZs1jDarWtOeE040w4If9f2j9ZZ1NvK+XeAZ
EDasdOOAEsMGaAGlZzvhXnY/F+J10v3YYrPLFNXvTdybMqD3c+GfSI3uO60yNWt8
p8MXxUqcP9uC8+cddrezk+jgvTJCfA+yWZwUz0CKpi9OwuhGGj+qh7wQrGcDM7Af
FYap12YaqrCHzFklLOALW/x5xL/8B4c3sbxACGB2wQEyea2aix6GCrbxPYQl/unS
WjfnsYx+xhDklTreSQAb+RYmZ5Qr31eXdyyNz/2cjT+DEMS97fSwwwoP1sllGg==
-----END CERTIFICATE-----
Certificate:
    Data:
        Version: 3 (0x2)
        Serial Number:
            64:67:79:72:00:00:00:00:67:39
        Signature Algorithm: sha1WithRSAEncryption
        Issuer: C=US, O=Google Inc, CN=Google Internet Authority
        Validity
            Not Before: Aug 16 12:25:38 2012 GMT
            Not After : Jun  7 19:43:27 2013 GMT
        Subject: C=US, ST=California, L=Mountain View, O=Google Inc, CN=*.googleapis.com
        Subject Public Key Info:
            Public Key Algorithm: rsaEncryption
                Public-Key: (1024 bit)
                Modulus:
                    00:c4:a0:6b:7b:52:f8:d1:7d:c1:cc:b4:73:62:c6:
                    4a:b7:99:aa:e1:9e:24:5a:75:59:e9:ce:ec:7d:8a:
                    a4:df:07:cb:0b:21:fd:fd:76:3c:63:a3:13:a6:68:
                    fe:9d:76:4e:d9:13:c5:1a:67:67:88:db:62:af:62:
                    4f:42:2c:2f:11:2c:13:16:92:2a:a5:d3:78:23:cd:
                    9f:43:d1:fc:54:51:3d:14:b2:9e:36:99:1f:08:a0:
                    42:c4:2e:aa:ee:e5:fe:8e:2c:b1:01:67:17:4a:35:
                    9c:eb:f6:fa:cc:2c:9c:a9:33:ad:40:31:37:ee:2c:
                    3f:4c:be:d9:46:01:29:c7:2b
                Exponent: 65537 (0x10001)
        X509v3 extensions:
            X509v3 Extended Key Usage: 
                TLS Web Server Authentication, TLS Web Client Authentication
            X509v3 Subject Key Identifier: 
                BB:13:BE:B2:3E:54:06:7B:3C:CD:82:12:D7:EB:87:40:91:C1:F5:1D
            X509v3 Authority Key Identifier: 
                keyid:BF:C0:30:EB:F5:43:11:3E:67:BA:9E:91:FB:FC:6A:DA:E3:6B:12:24

            X509v3 CRL Distribution Points: 

                Full Name:
                  URI:http://www.gstatic.com/GoogleInternetAuthority/GoogleInternetAuthority.crl

            Authority Information Access: 
                CA Issuers - URI:http://www.gstatic.com/GoogleInternetAuthority/GoogleInternetAuthority.crt

            X509v3 Basic Constraints: critical
                CA:FALSE
            X509v3 Subject Alternative Name: 
                DNS:*.googleapis.com, DNS:googleapis.com
    Signature Algorithm: sha1WithRSAEncryption
        0f:84:a9:60:37:12:83:0c:ed:16:e0:e1:4a:4a:36:48:7a:3a:
        c5:a7:f8:30:cc:2c:cc:41:e0:c9:7d:a3:77:96:34:a3:f6:30:
        2d:02:86:b6:d9:01:e0:78:b0:52:e1:5e:d1:83:39:2b:28:b9:
        f6:f5:cf:ab:86:06:7d:66:2a:52:3a:88:62:d9:ef:7b:35:14:
        68:cf:a8:c8:39:38:d6:55:5f:3d:a5:aa:c2:00:36:0d:d5:0b:
        2d:03:80:15:cf:a3:a4:ff:22:92:18:e5:3c:8a:03:c7:00:61:
        20:83:f1:27:9d:41:5f:a5:a1:90:0e:19:bd:ef:32:3f:36:46:
        37:5d
-----BEGIN CERTIFICATE-----
MIIDlDCCAv2gAwIBAgIKZGd5cgAAAABnOTANBgkqhkiG9w0BAQUFADBGMQswCQYD
VQQGEwJVUzETMBEGA1UEChMKR29vZ2xlIEluYzEiMCAGA1UEAxMZR29vZ2xlIElu
dGVybmV0IEF1dGhvcml0eTAeFw0xMjA4MTYxMjI1MzhaFw0xMzA2MDcxOTQzMjda
MGoxCzAJBgNVBAYTAlVTMRMwEQYDVQQIEwpDYWxpZm9ybmlhMRYwFAYDVQQHEw1N
b3VudGFpbiBWaWV3MRMwEQYDVQQKEwpHb29nbGUgSW5jMRkwFwYDVQQDFBAqLmdv
b2dsZWFwaXMuY29tMIGfMA0GCSqGSIb3DQEBAQUAA4GNADCBiQKBgQDEoGt7UvjR
fcHMtHNixkq3marhniRadVnpzux9iqTfB8sLIf39djxjoxOmaP6ddk7ZE8UaZ2eI
22KvYk9CLC8RLBMWkiql03gjzZ9D0fxUUT0Usp42mR8IoELELqru5f6OLLEBZxdK
NZzr9vrMLJypM61AMTfuLD9MvtlGASnHKwIDAQABo4IBYzCCAV8wHQYDVR0lBBYw
FAYIKwYBBQUHAwEGCCsGAQUFBwMCMB0GA1UdDgQWBBS7E76yPlQGezzNghLX64dA
kcH1HTAfBgNVHSMEGDAWgBS/wDDr9UMRPme6npH7/Gra42sSJDBbBgNVHR8EVDBS
MFCgTqBMhkpodHRwOi8vd3d3LmdzdGF0aWMuY29tL0dvb2dsZUludGVybmV0QXV0
aG9yaXR5L0dvb2dsZUludGVybmV0QXV0aG9yaXR5LmNybDBmBggrBgEFBQcBAQRa
MFgwVgYIKwYBBQUHMAKGSmh0dHA6Ly93d3cuZ3N0YXRpYy5jb20vR29vZ2xlSW50
ZXJuZXRBdXRob3JpdHkvR29vZ2xlSW50ZXJuZXRBdXRob3JpdHkuY3J0MAwGA1Ud
EwEB/wQCMAAwKwYDVR0RBCQwIoIQKi5nb29nbGVhcGlzLmNvbYIOZ29vZ2xlYXBp
cy5jb20wDQYJKoZIhvcNAQEFBQADgYEAD4SpYDcSgwztFuDhSko2SHo6xaf4MMws
zEHgyX2jd5Y0o/YwLQKGttkB4HiwUuFe0YM5Kyi59vXPq4YGfWYqUjqIYtnvezUU
aM+oyDk41lVfPaWqwgA2DdULLQOAFc+jpP8ikhjlPIoDxwBhIIPxJ51BX6WhkA4Z
ve8yPzZGN10=
-----END CERTIFICATE-----
